; Function Attrs: nofree nounwind uwtable
define internal void @_warning_handler(ptr noundef %0, ptr noundef readonly captures(none) %1, ptr noundef %2) #2 {
  %4 = load i32, ptr getelementptr inbounds nuw (i8, ptr @darktable, i64 8), align 8, !tbaa !34
  %5 = and i32 %4, 262144
  %.not = icmp eq i32 %5, 0
  br i1 %.not, label %7, label %6

6:                                                ; preds = %3
  tail call fastcc void @_warning_error_handler(ptr noundef nonnull @.str.12, ptr noundef %0, ptr noundef %1, ptr noundef %2)
  br label %7

7:                                                ; preds = %6, %3
  ret void
}